#include <math.h>
#include <stdio.h>
#include <stdlib.h>
#include <string.h>

int main()
{
	
	char a,b,c,d,e;
int i=0;
scanf("%c%c%c%c%c",&a,&b,&c,&d,&e);
if(i!='\n')
printf("%c%c%c%c%c\n",e,d,c,b,a);
return 0;
}