; ModuleID = '56/1927.c'
source_filename = "56/1927.c"
target datalayout = "e-m:e-p270:32:32-p271:32:32-p272:64:64-i64:64-f80:128-n8:16:32:64-S128"
target triple = "x86_64-pc-linux-gnu"

@.str = private unnamed_addr constant [11 x i8] c"%c%c%c%c%c\00", align 1
@.str.1 = private unnamed_addr constant [12 x i8] c"%c%c%c%c%c\0A\00", align 1

; Function Attrs: noinline nounwind uwtable
define dso_local i32 @main() #0 {
  %1 = alloca i32, align 4
  %2 = alloca i8, align 1
  %3 = alloca i8, align 1
  %4 = alloca i8, align 1
  %5 = alloca i8, align 1
  %6 = alloca i8, align 1
  %7 = alloca i32, align 4
  store i32 0, i32* %1, align 4
  store i32 0, i32* %7, align 4
  %8 = call i32 (i8*, ...) @__isoc99_scanf(i8* getelementptr inbounds ([11 x i8], [11 x i8]* @.str, i64 0, i64 0), i8* %2, i8* %3, i8* %4, i8* %5, i8* %6)
  %9 = load i32, i32* %7, align 4
  %10 = icmp ne i32 %9, 10
  br i1 %10, label %11, label %23

11:                                               ; preds = %0
  %12 = load i8, i8* %6, align 1
  %13 = sext i8 %12 to i32
  %14 = load i8, i8* %5, align 1
  %15 = sext i8 %14 to i32
  %16 = load i8, i8* %4, align 1
  %17 = sext i8 %16 to i32
  %18 = load i8, i8* %3, align 1
  %19 = sext i8 %18 to i32
  %20 = load i8, i8* %2, align 1
  %21 = sext i8 %20 to i32
  %22 = call i32 (i8*, ...) @printf(i8* getelementptr inbounds ([12 x i8], [12 x i8]* @.str.1, i64 0, i64 0), i32 %13, i32 %15, i32 %17, i32 %19, i32 %21)
  br label %23

23:                                               ; preds = %11, %0
  ret i32 0
}

declare dso_local i32 @__isoc99_scanf(i8*, ...) #1

declare dso_local i32 @printf(i8*, ...) #1


!llvm.module.flags = !{!0}
!llvm.ident = !{!1}

!0 = !{i32 1, !"wchar_size", i32 4}
!1 = !{!"clang version 10.0.0-4ubuntu1 "}
